(imetainfo
Process
p0
(dp1
S'SubProcesses'
p2
(lp3
(imetainfo
Process
p4
(dp5
g2
(lp6
(imetainfo
Process
p7
(dp8
g2
(lp9
(imetainfo
Process
p10
(dp11
g2
(lp12
sS'Items'
p13
(lp14
(imetainfo
Item
p15
(dp16
S'Comment'
p17
csip
_unpickle_type
p18
(S'PyQt4.QtCore'
p19
S'QString'
p20
(Vtbd
p21
tp22
tp23
Rp24
sS'Name'
p25
g18
(g19
S'QString'
p26
(VMal och Uppdrag
p27
tp28
tp29
Rp30
sS'Value'
p31
g18
(g19
S'QString'
p32
(Vtbd
p33
tp34
tp35
Rp36
sba(imetainfo
Item
p37
(dp38
g17
g18
(g19
S'QString'
p39
(Vtbd
p40
tp41
tp42
Rp43
sg25
g18
(g19
S'QString'
p44
(VJuridisk person
p45
tp46
tp47
Rp48
sg31
g18
(g19
S'QString'
p49
(Vtbd
p50
tp51
tp52
Rp53
sba(imetainfo
Item
p54
(dp55
g17
g18
(g19
S'QString'
p56
(Vtbd
p57
tp58
tp59
Rp60
sg25
g18
(g19
S'QString'
p61
(VAnsvarig enhet
p62
tp63
tp64
Rp65
sg31
g18
(g19
S'QString'
p66
(Vtbd
p67
tp68
tp69
Rp70
sba(imetainfo
Item
p71
(dp72
g17
g18
(g19
S'QString'
p73
(Vtbd
p74
tp75
tp76
Rp77
sg25
g18
(g19
S'QString'
p78
(VHistorik
p79
tp80
tp81
Rp82
sg31
g18
(g19
S'QString'
p83
(Vtbd
p84
tp85
tp86
Rp87
sba(imetainfo
Item
p88
(dp89
g17
g18
(g19
S'QString'
p90
(Vtbd
p91
tp92
tp93
Rp94
sg25
g18
(g19
S'QString'
p95
(VVerksamhetsagare
p96
tp97
tp98
Rp99
sg31
g18
(g19
S'QString'
p100
(Vtbd
p101
tp102
tp103
Rp104
sba(imetainfo
Item
p105
(dp106
g17
g18
(g19
S'QString'
p107
(Vtbd
p108
tp109
tp110
Rp111
sg25
g18
(g19
S'QString'
p112
(VModell
p113
tp114
tp115
Rp116
sg31
g18
(g19
S'QString'
p117
(Vxyz.jpg
p118
tp119
tp120
Rp121
sbasg25
S'Underprocess\xc3\xa5(000)'
p122
sS'Id'
p123
S'4eb528cd-bef2-4df3-a3ba-1bbb1860ab98'
p124
sba(imetainfo
Process
p125
(dp126
g2
(lp127
sg13
(lp128
(imetainfo
Item
p129
(dp130
g17
g18
(g19
S'QString'
p131
(Vtbd
p132
tp133
tp134
Rp135
sg25
g18
(g19
S'QString'
p136
(VMal och Uppdrag
p137
tp138
tp139
Rp140
sg31
g18
(g19
S'QString'
p141
(Vtbd
p142
tp143
tp144
Rp145
sba(imetainfo
Item
p146
(dp147
g17
g18
(g19
S'QString'
p148
(Vtbd
p149
tp150
tp151
Rp152
sg25
g18
(g19
S'QString'
p153
(VJuridisk person
p154
tp155
tp156
Rp157
sg31
g18
(g19
S'QString'
p158
(Vtbd
p159
tp160
tp161
Rp162
sba(imetainfo
Item
p163
(dp164
g17
g18
(g19
S'QString'
p165
(Vtbd
p166
tp167
tp168
Rp169
sg25
g18
(g19
S'QString'
p170
(VAnsvarig enhet
p171
tp172
tp173
Rp174
sg31
g18
(g19
S'QString'
p175
(Vtbd
p176
tp177
tp178
Rp179
sba(imetainfo
Item
p180
(dp181
g17
g18
(g19
S'QString'
p182
(Vtbd
p183
tp184
tp185
Rp186
sg25
g18
(g19
S'QString'
p187
(VHistorik
p188
tp189
tp190
Rp191
sg31
g18
(g19
S'QString'
p192
(Vtbd
p193
tp194
tp195
Rp196
sba(imetainfo
Item
p197
(dp198
g17
g18
(g19
S'QString'
p199
(Vtbd
p200
tp201
tp202
Rp203
sg25
g18
(g19
S'QString'
p204
(VVerksamhetsagare
p205
tp206
tp207
Rp208
sg31
g18
(g19
S'QString'
p209
(Vtbd
p210
tp211
tp212
Rp213
sba(imetainfo
Item
p214
(dp215
g17
g18
(g19
S'QString'
p216
(Vtbd
p217
tp218
tp219
Rp220
sg25
g18
(g19
S'QString'
p221
(VModell
p222
tp223
tp224
Rp225
sg31
g18
(g19
S'QString'
p226
(Vxyz.jpg
p227
tp228
tp229
Rp230
sbasg25
S'Underprocess(001)'
p231
sg123
S'c82b1079-8d14-44fd-9191-b10a194c785e'
p232
sbasg13
(lp233
(imetainfo
Item
p234
(dp235
g17
g18
(g19
S'QString'
p236
(Vtbd
p237
tp238
tp239
Rp240
sg25
g18
(g19
S'QString'
p241
(VMal och Uppdrag
p242
tp243
tp244
Rp245
sg31
g18
(g19
S'QString'
p246
(Vtbd
p247
tp248
tp249
Rp250
sba(imetainfo
Item
p251
(dp252
g17
g18
(g19
S'QString'
p253
(Vtbd
p254
tp255
tp256
Rp257
sg25
g18
(g19
S'QString'
p258
(VJuridisk person
p259
tp260
tp261
Rp262
sg31
g18
(g19
S'QString'
p263
(Vtbd
p264
tp265
tp266
Rp267
sba(imetainfo
Item
p268
(dp269
g17
g18
(g19
S'QString'
p270
(Vtbd
p271
tp272
tp273
Rp274
sg25
g18
(g19
S'QString'
p275
(VAnsvarig enhet
p276
tp277
tp278
Rp279
sg31
g18
(g19
S'QString'
p280
(Vtbd
p281
tp282
tp283
Rp284
sba(imetainfo
Item
p285
(dp286
g17
g18
(g19
S'QString'
p287
(Vtbd
p288
tp289
tp290
Rp291
sg25
g18
(g19
S'QString'
p292
(VHistorik
p293
tp294
tp295
Rp296
sg31
g18
(g19
S'QString'
p297
(Vtbd
p298
tp299
tp300
Rp301
sba(imetainfo
Item
p302
(dp303
g17
g18
(g19
S'QString'
p304
(Vtbd
p305
tp306
tp307
Rp308
sg25
g18
(g19
S'QString'
p309
(VVerksamhetsagare
p310
tp311
tp312
Rp313
sg31
g18
(g19
S'QString'
p314
(Vtbd
p315
tp316
tp317
Rp318
sba(imetainfo
Item
p319
(dp320
g17
g18
(g19
S'QString'
p321
(Vtbd
p322
tp323
tp324
Rp325
sg25
g18
(g19
S'QString'
p326
(VModell
p327
tp328
tp329
Rp330
sg31
g18
(g19
S'QString'
p331
(Vdef.jpg
p332
tp333
tp334
Rp335
sbasg25
S'Bibliotekets webb(00)'
p336
sg123
S'b1852eab-c2c2-4387-90ea-e877b15da32d'
p337
sba(imetainfo
Process
p338
(dp339
g2
(lp340
(imetainfo
Process
p341
(dp342
g2
(lp343
sg13
(lp344
(imetainfo
Item
p345
(dp346
g17
g18
(g19
S'QString'
p347
(Vtbd
p348
tp349
tp350
Rp351
sg25
g18
(g19
S'QString'
p352
(VMal och Uppdrag
p353
tp354
tp355
Rp356
sg31
g18
(g19
S'QString'
p357
(Vtbd
p358
tp359
tp360
Rp361
sba(imetainfo
Item
p362
(dp363
g17
g18
(g19
S'QString'
p364
(Vtbd
p365
tp366
tp367
Rp368
sg25
g18
(g19
S'QString'
p369
(VJuridisk person
p370
tp371
tp372
Rp373
sg31
g18
(g19
S'QString'
p374
(Vtbd
p375
tp376
tp377
Rp378
sba(imetainfo
Item
p379
(dp380
g17
g18
(g19
S'QString'
p381
(Vtbd
p382
tp383
tp384
Rp385
sg25
g18
(g19
S'QString'
p386
(VAnsvarig enhet
p387
tp388
tp389
Rp390
sg31
g18
(g19
S'QString'
p391
(Vtbd
p392
tp393
tp394
Rp395
sba(imetainfo
Item
p396
(dp397
g17
g18
(g19
S'QString'
p398
(Vtbd
p399
tp400
tp401
Rp402
sg25
g18
(g19
S'QString'
p403
(VHistorik
p404
tp405
tp406
Rp407
sg31
g18
(g19
S'QString'
p408
(Vtbd
p409
tp410
tp411
Rp412
sba(imetainfo
Item
p413
(dp414
g17
g18
(g19
S'QString'
p415
(Vtbd
p416
tp417
tp418
Rp419
sg25
g18
(g19
S'QString'
p420
(VVerksamhetsagare
p421
tp422
tp423
Rp424
sg31
g18
(g19
S'QString'
p425
(Vtbd
p426
tp427
tp428
Rp429
sba(imetainfo
Item
p430
(dp431
g17
g18
(g19
S'QString'
p432
(Vtbd
p433
tp434
tp435
Rp436
sg25
g18
(g19
S'QString'
p437
(VModell
p438
tp439
tp440
Rp441
sg31
g18
(g19
S'QString'
p442
(Vxyz.jpg
p443
tp444
tp445
Rp446
sbasg25
S'Underprocess(010)'
p447
sg123
S'bde1b393-8591-4d0b-a655-e5870e5068e1'
p448
sba(imetainfo
Process
p449
(dp450
g2
(lp451
sg13
(lp452
(imetainfo
Item
p453
(dp454
g17
g18
(g19
S'QString'
p455
(Vtbd
p456
tp457
tp458
Rp459
sg25
g18
(g19
S'QString'
p460
(VMal och Uppdrag
p461
tp462
tp463
Rp464
sg31
g18
(g19
S'QString'
p465
(Vtbd
p466
tp467
tp468
Rp469
sba(imetainfo
Item
p470
(dp471
g17
g18
(g19
S'QString'
p472
(Vtbd
p473
tp474
tp475
Rp476
sg25
g18
(g19
S'QString'
p477
(VJuridisk person
p478
tp479
tp480
Rp481
sg31
g18
(g19
S'QString'
p482
(Vtbd
p483
tp484
tp485
Rp486
sba(imetainfo
Item
p487
(dp488
g17
g18
(g19
S'QString'
p489
(Vtbd
p490
tp491
tp492
Rp493
sg25
g18
(g19
S'QString'
p494
(VAnsvarig enhet
p495
tp496
tp497
Rp498
sg31
g18
(g19
S'QString'
p499
(Vtbd
p500
tp501
tp502
Rp503
sba(imetainfo
Item
p504
(dp505
g17
g18
(g19
S'QString'
p506
(Vtbd
p507
tp508
tp509
Rp510
sg25
g18
(g19
S'QString'
p511
(VHistorik
p512
tp513
tp514
Rp515
sg31
g18
(g19
S'QString'
p516
(Vtbd
p517
tp518
tp519
Rp520
sba(imetainfo
Item
p521
(dp522
g17
g18
(g19
S'QString'
p523
(Vtbd
p524
tp525
tp526
Rp527
sg25
g18
(g19
S'QString'
p528
(VVerksamhetsagare
p529
tp530
tp531
Rp532
sg31
g18
(g19
S'QString'
p533
(Vtbd
p534
tp535
tp536
Rp537
sba(imetainfo
Item
p538
(dp539
g17
g18
(g19
S'QString'
p540
(Vtbd
p541
tp542
tp543
Rp544
sg25
g18
(g19
S'QString'
p545
(VModell
p546
tp547
tp548
Rp549
sg31
g18
(g19
S'QString'
p550
(Vxyz.jpg
p551
tp552
tp553
Rp554
sbasg25
S'Underprocess(011)'
p555
sg123
S'609cdbff-e6d8-4bc2-856d-7b7b5e32bf42'
p556
sbasg13
(lp557
(imetainfo
Item
p558
(dp559
g17
g18
(g19
S'QString'
p560
(Vtbd
p561
tp562
tp563
Rp564
sg25
g18
(g19
S'QString'
p565
(VMal och Uppdrag
p566
tp567
tp568
Rp569
sg31
g18
(g19
S'QString'
p570
(Vtbd
p571
tp572
tp573
Rp574
sba(imetainfo
Item
p575
(dp576
g17
g18
(g19
S'QString'
p577
(Vtbd
p578
tp579
tp580
Rp581
sg25
g18
(g19
S'QString'
p582
(VJuridisk person
p583
tp584
tp585
Rp586
sg31
g18
(g19
S'QString'
p587
(Vtbd
p588
tp589
tp590
Rp591
sba(imetainfo
Item
p592
(dp593
g17
g18
(g19
S'QString'
p594
(Vtbd
p595
tp596
tp597
Rp598
sg25
g18
(g19
S'QString'
p599
(VAnsvarig enhet
p600
tp601
tp602
Rp603
sg31
g18
(g19
S'QString'
p604
(Vtbd
p605
tp606
tp607
Rp608
sba(imetainfo
Item
p609
(dp610
g17
g18
(g19
S'QString'
p611
(Vtbd
p612
tp613
tp614
Rp615
sg25
g18
(g19
S'QString'
p616
(VHistorik
p617
tp618
tp619
Rp620
sg31
g18
(g19
S'QString'
p621
(Vtbd
p622
tp623
tp624
Rp625
sba(imetainfo
Item
p626
(dp627
g17
g18
(g19
S'QString'
p628
(Vtbd
p629
tp630
tp631
Rp632
sg25
g18
(g19
S'QString'
p633
(VVerksamhetsagare
p634
tp635
tp636
Rp637
sg31
g18
(g19
S'QString'
p638
(Vtbd
p639
tp640
tp641
Rp642
sba(imetainfo
Item
p643
(dp644
g17
g18
(g19
S'QString'
p645
(Vtbd
p646
tp647
tp648
Rp649
sg25
g18
(g19
S'QString'
p650
(VModell
p651
tp652
tp653
Rp654
sg31
g18
(g19
S'QString'
p655
(Vxyz.jpg
p656
tp657
tp658
Rp659
sbasg25
S'Information vid disk(01)'
p660
sg123
S'25b055d9-6f2d-4ea6-83a6-6822159198e3'
p661
sbasg13
(lp662
(imetainfo
Item
p663
(dp664
g17
g18
(g19
S'QString'
p665
(Vtbd
p666
tp667
tp668
Rp669
sg25
g18
(g19
S'QString'
p670
(VTyp av strukturenhet
p671
tp672
tp673
Rp674
sg31
g18
(g19
S'QString'
p675
(Vtbd
p676
tp677
tp678
Rp679
sba(imetainfo
Item
p680
(dp681
g17
g18
(g19
S'QString'
p682
(Vtbd
p683
tp684
tp685
Rp686
sg25
g18
(g19
S'QString'
p687
(VKlassificering
p688
tp689
tp690
Rp691
sg31
g18
(g19
S'QString'
p692
(Vtbd
p693
tp694
tp695
Rp696
sba(imetainfo
Item
p697
(dp698
g17
g18
(g19
S'QString'
p699
(Vtbd
p700
tp701
tp702
Rp703
sg25
g18
(g19
S'QString'
p704
(VNamn
p705
tp706
tp707
Rp708
sg31
g18
(g19
S'QString'
p709
(Vtbd
p710
tp711
tp712
Rp713
sba(imetainfo
Item
p714
(dp715
g17
g18
(g19
S'QString'
p716
(Vtbd
p717
tp718
tp719
Rp720
sg25
g18
(g19
S'QString'
p721
(VTid
p722
tp723
tp724
Rp725
sg31
g18
(g19
S'QString'
p726
(Vtbd
p727
tp728
tp729
Rp730
sba(imetainfo
Item
p731
(dp732
g17
g18
(g19
S'QString'
p733
(Vtbd
p734
tp735
tp736
Rp737
sg25
g18
(g19
S'QString'
p738
(VForegicks av
p739
tp740
tp741
Rp742
sg31
g18
(g19
S'QString'
p743
(Vtbd
p744
tp745
tp746
Rp747
sba(imetainfo
Item
p748
(dp749
g17
g18
(g19
S'QString'
p750
(Vtbd
p751
tp752
tp753
Rp754
sg25
g18
(g19
S'QString'
p755
(VModell
p756
tp757
tp758
Rp759
sg31
g18
(g19
S'QString'
p760
(VInformation.jpg
p761
tp762
tp763
Rp764
sbasg25
S'Information(0)'
p765
sg123
S'0ce6e02d-3265-404c-a0ad-c3c84f9826ae'
p766
sba(imetainfo
Process
p767
(dp768
g2
(lp769
(imetainfo
Process
p770
(dp771
g2
(lp772
(imetainfo
Process
p773
(dp774
g2
(lp775
sg13
(lp776
(imetainfo
Item
p777
(dp778
g17
g18
(g19
S'QString'
p779
(Vtbd
p780
tp781
tp782
Rp783
sg25
g18
(g19
S'QString'
p784
(VMal och Uppdrag
p785
tp786
tp787
Rp788
sg31
g18
(g19
S'QString'
p789
(Vtbd
p790
tp791
tp792
Rp793
sba(imetainfo
Item
p794
(dp795
g17
g18
(g19
S'QString'
p796
(Vtbd
p797
tp798
tp799
Rp800
sg25
g18
(g19
S'QString'
p801
(VJuridisk person
p802
tp803
tp804
Rp805
sg31
g18
(g19
S'QString'
p806
(Vtbd
p807
tp808
tp809
Rp810
sba(imetainfo
Item
p811
(dp812
g17
g18
(g19
S'QString'
p813
(Vtbd
p814
tp815
tp816
Rp817
sg25
g18
(g19
S'QString'
p818
(VAnsvarig enhet
p819
tp820
tp821
Rp822
sg31
g18
(g19
S'QString'
p823
(Vtbd
p824
tp825
tp826
Rp827
sba(imetainfo
Item
p828
(dp829
g17
g18
(g19
S'QString'
p830
(Vtbd
p831
tp832
tp833
Rp834
sg25
g18
(g19
S'QString'
p835
(VHistorik
p836
tp837
tp838
Rp839
sg31
g18
(g19
S'QString'
p840
(Vtbd
p841
tp842
tp843
Rp844
sba(imetainfo
Item
p845
(dp846
g17
g18
(g19
S'QString'
p847
(Vtbd
p848
tp849
tp850
Rp851
sg25
g18
(g19
S'QString'
p852
(VVerksamhetsagare
p853
tp854
tp855
Rp856
sg31
g18
(g19
S'QString'
p857
(Vtbd
p858
tp859
tp860
Rp861
sba(imetainfo
Item
p862
(dp863
g17
g18
(g19
S'QString'
p864
(Vtbd
p865
tp866
tp867
Rp868
sg25
g18
(g19
S'QString'
p869
(VModell
p870
tp871
tp872
Rp873
sg31
g18
(g19
S'QString'
p874
(Vxyz.jpg
p875
tp876
tp877
Rp878
sbasg25
S'Underprocess(100)'
p879
sg123
S'33a1ed39-3dad-40de-96fb-60b8f7d78dc5'
p880
sba(imetainfo
Process
p881
(dp882
g2
(lp883
sg13
(lp884
(imetainfo
Item
p885
(dp886
g17
g18
(g19
S'QString'
p887
(Vtbd
p888
tp889
tp890
Rp891
sg25
g18
(g19
S'QString'
p892
(VMal och Uppdrag
p893
tp894
tp895
Rp896
sg31
g18
(g19
S'QString'
p897
(Vtbd
p898
tp899
tp900
Rp901
sba(imetainfo
Item
p902
(dp903
g17
g18
(g19
S'QString'
p904
(Vtbd
p905
tp906
tp907
Rp908
sg25
g18
(g19
S'QString'
p909
(VJuridisk person
p910
tp911
tp912
Rp913
sg31
g18
(g19
S'QString'
p914
(Vtbd
p915
tp916
tp917
Rp918
sba(imetainfo
Item
p919
(dp920
g17
g18
(g19
S'QString'
p921
(Vtbd
p922
tp923
tp924
Rp925
sg25
g18
(g19
S'QString'
p926
(VAnsvarig enhet
p927
tp928
tp929
Rp930
sg31
g18
(g19
S'QString'
p931
(Vtbd
p932
tp933
tp934
Rp935
sba(imetainfo
Item
p936
(dp937
g17
g18
(g19
S'QString'
p938
(Vtbd
p939
tp940
tp941
Rp942
sg25
g18
(g19
S'QString'
p943
(VHistorik
p944
tp945
tp946
Rp947
sg31
g18
(g19
S'QString'
p948
(Vtbd
p949
tp950
tp951
Rp952
sba(imetainfo
Item
p953
(dp954
g17
g18
(g19
S'QString'
p955
(Vtbd
p956
tp957
tp958
Rp959
sg25
g18
(g19
S'QString'
p960
(VVerksamhetsagare
p961
tp962
tp963
Rp964
sg31
g18
(g19
S'QString'
p965
(Vtbd
p966
tp967
tp968
Rp969
sba(imetainfo
Item
p970
(dp971
g17
g18
(g19
S'QString'
p972
(Vtbd
p973
tp974
tp975
Rp976
sg25
g18
(g19
S'QString'
p977
(VModell
p978
tp979
tp980
Rp981
sg31
g18
(g19
S'QString'
p982
(Vxyz.jpg
p983
tp984
tp985
Rp986
sbasg25
S'Underprocess(101)'
p987
sg123
S'd0d93c83-194d-4583-abf3-2125b5171d63'
p988
sbasg13
(lp989
(imetainfo
Item
p990
(dp991
g17
g18
(g19
S'QString'
p992
(Vtbd
p993
tp994
tp995
Rp996
sg25
g18
(g19
S'QString'
p997
(VMal och Uppdrag
p998
tp999
tp1000
Rp1001
sg31
g18
(g19
S'QString'
p1002
(Vtbd
p1003
tp1004
tp1005
Rp1006
sba(imetainfo
Item
p1007
(dp1008
g17
g18
(g19
S'QString'
p1009
(Vtbd
p1010
tp1011
tp1012
Rp1013
sg25
g18
(g19
S'QString'
p1014
(VJuridisk person
p1015
tp1016
tp1017
Rp1018
sg31
g18
(g19
S'QString'
p1019
(Vtbd
p1020
tp1021
tp1022
Rp1023
sba(imetainfo
Item
p1024
(dp1025
g17
g18
(g19
S'QString'
p1026
(Vtbd
p1027
tp1028
tp1029
Rp1030
sg25
g18
(g19
S'QString'
p1031
(VAnsvarig enhet
p1032
tp1033
tp1034
Rp1035
sg31
g18
(g19
S'QString'
p1036
(Vtbd
p1037
tp1038
tp1039
Rp1040
sba(imetainfo
Item
p1041
(dp1042
g17
g18
(g19
S'QString'
p1043
(Vtbd
p1044
tp1045
tp1046
Rp1047
sg25
g18
(g19
S'QString'
p1048
(VHistorik
p1049
tp1050
tp1051
Rp1052
sg31
g18
(g19
S'QString'
p1053
(Vtbd
p1054
tp1055
tp1056
Rp1057
sba(imetainfo
Item
p1058
(dp1059
g17
g18
(g19
S'QString'
p1060
(Vtbd
p1061
tp1062
tp1063
Rp1064
sg25
g18
(g19
S'QString'
p1065
(VVerksamhetsagare
p1066
tp1067
tp1068
Rp1069
sg31
g18
(g19
S'QString'
p1070
(Vtbd
p1071
tp1072
tp1073
Rp1074
sba(imetainfo
Item
p1075
(dp1076
g17
g18
(g19
S'QString'
p1077
(Vtbd
p1078
tp1079
tp1080
Rp1081
sg25
g18
(g19
S'QString'
p1082
(VModell
p1083
tp1084
tp1085
Rp1086
sg31
g18
(g19
S'QString'
p1087
(Vxyz.jpg
p1088
tp1089
tp1090
Rp1091
sbasg25
S'Underprocess(10)'
p1092
sg123
S'0fe75133-86dc-4c2d-aa95-52654dbf77dc'
p1093
sba(imetainfo
Process
p1094
(dp1095
g2
(lp1096
(imetainfo
Process
p1097
(dp1098
g2
(lp1099
sg13
(lp1100
(imetainfo
Item
p1101
(dp1102
g17
g18
(g19
S'QString'
p1103
(Vtbd
p1104
tp1105
tp1106
Rp1107
sg25
g18
(g19
S'QString'
p1108
(VMal och Uppdrag
p1109
tp1110
tp1111
Rp1112
sg31
g18
(g19
S'QString'
p1113
(Vtbd
p1114
tp1115
tp1116
Rp1117
sba(imetainfo
Item
p1118
(dp1119
g17
g18
(g19
S'QString'
p1120
(Vtbd
p1121
tp1122
tp1123
Rp1124
sg25
g18
(g19
S'QString'
p1125
(VJuridisk person
p1126
tp1127
tp1128
Rp1129
sg31
g18
(g19
S'QString'
p1130
(Vtbd
p1131
tp1132
tp1133
Rp1134
sba(imetainfo
Item
p1135
(dp1136
g17
g18
(g19
S'QString'
p1137
(Vtbd
p1138
tp1139
tp1140
Rp1141
sg25
g18
(g19
S'QString'
p1142
(VAnsvarig enhet
p1143
tp1144
tp1145
Rp1146
sg31
g18
(g19
S'QString'
p1147
(Vtbd
p1148
tp1149
tp1150
Rp1151
sba(imetainfo
Item
p1152
(dp1153
g17
g18
(g19
S'QString'
p1154
(Vtbd
p1155
tp1156
tp1157
Rp1158
sg25
g18
(g19
S'QString'
p1159
(VHistorik
p1160
tp1161
tp1162
Rp1163
sg31
g18
(g19
S'QString'
p1164
(Vtbd
p1165
tp1166
tp1167
Rp1168
sba(imetainfo
Item
p1169
(dp1170
g17
g18
(g19
S'QString'
p1171
(Vtbd
p1172
tp1173
tp1174
Rp1175
sg25
g18
(g19
S'QString'
p1176
(VVerksamhetsagare
p1177
tp1178
tp1179
Rp1180
sg31
g18
(g19
S'QString'
p1181
(Vtbd
p1182
tp1183
tp1184
Rp1185
sba(imetainfo
Item
p1186
(dp1187
g17
g18
(g19
S'QString'
p1188
(Vtbd
p1189
tp1190
tp1191
Rp1192
sg25
g18
(g19
S'QString'
p1193
(VModell
p1194
tp1195
tp1196
Rp1197
sg31
g18
(g19
S'QString'
p1198
(Vxyz.jpg
p1199
tp1200
tp1201
Rp1202
sbasg25
S'Underprocess(110)'
p1203
sg123
S'76ffaead-4ef5-46b3-9c62-349f7933eff7'
p1204
sba(imetainfo
Process
p1205
(dp1206
g2
(lp1207
sg13
(lp1208
(imetainfo
Item
p1209
(dp1210
g17
g18
(g19
S'QString'
p1211
(Vtbd
p1212
tp1213
tp1214
Rp1215
sg25
g18
(g19
S'QString'
p1216
(VMal och Uppdrag
p1217
tp1218
tp1219
Rp1220
sg31
g18
(g19
S'QString'
p1221
(Vtbd
p1222
tp1223
tp1224
Rp1225
sba(imetainfo
Item
p1226
(dp1227
g17
g18
(g19
S'QString'
p1228
(Vtbd
p1229
tp1230
tp1231
Rp1232
sg25
g18
(g19
S'QString'
p1233
(VJuridisk person
p1234
tp1235
tp1236
Rp1237
sg31
g18
(g19
S'QString'
p1238
(Vtbd
p1239
tp1240
tp1241
Rp1242
sba(imetainfo
Item
p1243
(dp1244
g17
g18
(g19
S'QString'
p1245
(Vtbd
p1246
tp1247
tp1248
Rp1249
sg25
g18
(g19
S'QString'
p1250
(VAnsvarig enhet
p1251
tp1252
tp1253
Rp1254
sg31
g18
(g19
S'QString'
p1255
(Vtbd
p1256
tp1257
tp1258
Rp1259
sba(imetainfo
Item
p1260
(dp1261
g17
g18
(g19
S'QString'
p1262
(Vtbd
p1263
tp1264
tp1265
Rp1266
sg25
g18
(g19
S'QString'
p1267
(VHistorik
p1268
tp1269
tp1270
Rp1271
sg31
g18
(g19
S'QString'
p1272
(Vtbd
p1273
tp1274
tp1275
Rp1276
sba(imetainfo
Item
p1277
(dp1278
g17
g18
(g19
S'QString'
p1279
(Vtbd
p1280
tp1281
tp1282
Rp1283
sg25
g18
(g19
S'QString'
p1284
(VVerksamhetsagare
p1285
tp1286
tp1287
Rp1288
sg31
g18
(g19
S'QString'
p1289
(Vtbd
p1290
tp1291
tp1292
Rp1293
sba(imetainfo
Item
p1294
(dp1295
g17
g18
(g19
S'QString'
p1296
(Vtbd
p1297
tp1298
tp1299
Rp1300
sg25
g18
(g19
S'QString'
p1301
(VModell
p1302
tp1303
tp1304
Rp1305
sg31
g18
(g19
S'QString'
p1306
(Vxyz.jpg
p1307
tp1308
tp1309
Rp1310
sbasg25
S'Underprocess(111)'
p1311
sg123
S'400afd87-5e9a-46f5-a090-718252d5cc61'
p1312
sbasg13
(lp1313
(imetainfo
Item
p1314
(dp1315
g17
g18
(g19
S'QString'
p1316
(Vtbd
p1317
tp1318
tp1319
Rp1320
sg25
g18
(g19
S'QString'
p1321
(VMal och Uppdrag
p1322
tp1323
tp1324
Rp1325
sg31
g18
(g19
S'QString'
p1326
(Vtbd
p1327
tp1328
tp1329
Rp1330
sba(imetainfo
Item
p1331
(dp1332
g17
g18
(g19
S'QString'
p1333
(Vtbd
p1334
tp1335
tp1336
Rp1337
sg25
g18
(g19
S'QString'
p1338
(VJuridisk person
p1339
tp1340
tp1341
Rp1342
sg31
g18
(g19
S'QString'
p1343
(Vtbd
p1344
tp1345
tp1346
Rp1347
sba(imetainfo
Item
p1348
(dp1349
g17
g18
(g19
S'QString'
p1350
(Vtbd
p1351
tp1352
tp1353
Rp1354
sg25
g18
(g19
S'QString'
p1355
(VAnsvarig enhet
p1356
tp1357
tp1358
Rp1359
sg31
g18
(g19
S'QString'
p1360
(Vtbd
p1361
tp1362
tp1363
Rp1364
sba(imetainfo
Item
p1365
(dp1366
g17
g18
(g19
S'QString'
p1367
(Vtbd
p1368
tp1369
tp1370
Rp1371
sg25
g18
(g19
S'QString'
p1372
(VHistorik
p1373
tp1374
tp1375
Rp1376
sg31
g18
(g19
S'QString'
p1377
(Vtbd
p1378
tp1379
tp1380
Rp1381
sba(imetainfo
Item
p1382
(dp1383
g17
g18
(g19
S'QString'
p1384
(Vtbd
p1385
tp1386
tp1387
Rp1388
sg25
g18
(g19
S'QString'
p1389
(VVerksamhetsagare
p1390
tp1391
tp1392
Rp1393
sg31
g18
(g19
S'QString'
p1394
(Vtbd
p1395
tp1396
tp1397
Rp1398
sba(imetainfo
Item
p1399
(dp1400
g17
g18
(g19
S'QString'
p1401
(Vtbd
p1402
tp1403
tp1404
Rp1405
sg25
g18
(g19
S'QString'
p1406
(VModell
p1407
tp1408
tp1409
Rp1410
sg31
g18
(g19
S'QString'
p1411
(Vxyz.jpg
p1412
tp1413
tp1414
Rp1415
sbasg25
S'Underprocess(11)'
p1416
sg123
S'7571fa96-0d0b-46b7-b16e-ce8414d7af35'
p1417
sbasg13
(lp1418
(imetainfo
Item
p1419
(dp1420
g17
g18
(g19
S'QString'
p1421
(Vtbd
p1422
tp1423
tp1424
Rp1425
sg25
g18
(g19
S'QString'
p1426
(VTyp av strukturenhet
p1427
tp1428
tp1429
Rp1430
sg31
g18
(g19
S'QString'
p1431
(Vtbd
p1432
tp1433
tp1434
Rp1435
sba(imetainfo
Item
p1436
(dp1437
g17
g18
(g19
S'QString'
p1438
(Vtbd
p1439
tp1440
tp1441
Rp1442
sg25
g18
(g19
S'QString'
p1443
(VKlassificering
p1444
tp1445
tp1446
Rp1447
sg31
g18
(g19
S'QString'
p1448
(Vtbd
p1449
tp1450
tp1451
Rp1452
sba(imetainfo
Item
p1453
(dp1454
g17
g18
(g19
S'QString'
p1455
(Vtbd
p1456
tp1457
tp1458
Rp1459
sg25
g18
(g19
S'QString'
p1460
(VNamn
p1461
tp1462
tp1463
Rp1464
sg31
g18
(g19
S'QString'
p1465
(Vtbd
p1466
tp1467
tp1468
Rp1469
sba(imetainfo
Item
p1470
(dp1471
g17
g18
(g19
S'QString'
p1472
(Vtbd
p1473
tp1474
tp1475
Rp1476
sg25
g18
(g19
S'QString'
p1477
(VTid
p1478
tp1479
tp1480
Rp1481
sg31
g18
(g19
S'QString'
p1482
(Vtbd
p1483
tp1484
tp1485
Rp1486
sba(imetainfo
Item
p1487
(dp1488
g17
g18
(g19
S'QString'
p1489
(Vtbd
p1490
tp1491
tp1492
Rp1493
sg25
g18
(g19
S'QString'
p1494
(VForegicks av
p1495
tp1496
tp1497
Rp1498
sg31
g18
(g19
S'QString'
p1499
(Vtbd
p1500
tp1501
tp1502
Rp1503
sba(imetainfo
Item
p1504
(dp1505
g17
g18
(g19
S'QString'
p1506
(Vtbd
p1507
tp1508
tp1509
Rp1510
sg25
g18
(g19
S'QString'
p1511
(VModell
p1512
tp1513
tp1514
Rp1515
sg31
g18
(g19
S'QString'
p1516
(VProgram.jpg
p1517
tp1518
tp1519
Rp1520
sbasg25
S'Program(1)'
p1521
sg123
S'b9704ee1-50cc-4201-bf93-f11d0dbecac9'
p1522
sba(imetainfo
Process
p1523
(dp1524
g2
(lp1525
(imetainfo
Process
p1526
(dp1527
g2
(lp1528
(imetainfo
Process
p1529
(dp1530
g2
(lp1531
sg13
(lp1532
(imetainfo
Item
p1533
(dp1534
g17
g18
(g19
S'QString'
p1535
(Vtbd
p1536
tp1537
tp1538
Rp1539
sg25
g18
(g19
S'QString'
p1540
(VMal och Uppdrag
p1541
tp1542
tp1543
Rp1544
sg31
g18
(g19
S'QString'
p1545
(Vtbd
p1546
tp1547
tp1548
Rp1549
sba(imetainfo
Item
p1550
(dp1551
g17
g18
(g19
S'QString'
p1552
(Vtbd
p1553
tp1554
tp1555
Rp1556
sg25
g18
(g19
S'QString'
p1557
(VJuridisk person
p1558
tp1559
tp1560
Rp1561
sg31
g18
(g19
S'QString'
p1562
(Vtbd
p1563
tp1564
tp1565
Rp1566
sba(imetainfo
Item
p1567
(dp1568
g17
g18
(g19
S'QString'
p1569
(Vtbd
p1570
tp1571
tp1572
Rp1573
sg25
g18
(g19
S'QString'
p1574
(VAnsvarig enhet
p1575
tp1576
tp1577
Rp1578
sg31
g18
(g19
S'QString'
p1579
(Vtbd
p1580
tp1581
tp1582
Rp1583
sba(imetainfo
Item
p1584
(dp1585
g17
g18
(g19
S'QString'
p1586
(Vtbd
p1587
tp1588
tp1589
Rp1590
sg25
g18
(g19
S'QString'
p1591
(VHistorik
p1592
tp1593
tp1594
Rp1595
sg31
g18
(g19
S'QString'
p1596
(Vtbd
p1597
tp1598
tp1599
Rp1600
sba(imetainfo
Item
p1601
(dp1602
g17
g18
(g19
S'QString'
p1603
(Vtbd
p1604
tp1605
tp1606
Rp1607
sg25
g18
(g19
S'QString'
p1608
(VVerksamhetsagare
p1609
tp1610
tp1611
Rp1612
sg31
g18
(g19
S'QString'
p1613
(Vtbd
p1614
tp1615
tp1616
Rp1617
sba(imetainfo
Item
p1618
(dp1619
g17
g18
(g19
S'QString'
p1620
(Vtbd
p1621
tp1622
tp1623
Rp1624
sg25
g18
(g19
S'QString'
p1625
(VModell
p1626
tp1627
tp1628
Rp1629
sg31
g18
(g19
S'QString'
p1630
(Vxyz.jpg
p1631
tp1632
tp1633
Rp1634
sbasg25
S'Underprocess(200)'
p1635
sg123
S'bb83935c-80aa-4391-8a9d-b3944afa1ba2'
p1636
sba(imetainfo
Process
p1637
(dp1638
g2
(lp1639
sg13
(lp1640
(imetainfo
Item
p1641
(dp1642
g17
g18
(g19
S'QString'
p1643
(Vtbd
p1644
tp1645
tp1646
Rp1647
sg25
g18
(g19
S'QString'
p1648
(VMal och Uppdrag
p1649
tp1650
tp1651
Rp1652
sg31
g18
(g19
S'QString'
p1653
(Vtbd
p1654
tp1655
tp1656
Rp1657
sba(imetainfo
Item
p1658
(dp1659
g17
g18
(g19
S'QString'
p1660
(Vtbd
p1661
tp1662
tp1663
Rp1664
sg25
g18
(g19
S'QString'
p1665
(VJuridisk person
p1666
tp1667
tp1668
Rp1669
sg31
g18
(g19
S'QString'
p1670
(Vtbd
p1671
tp1672
tp1673
Rp1674
sba(imetainfo
Item
p1675
(dp1676
g17
g18
(g19
S'QString'
p1677
(Vtbd
p1678
tp1679
tp1680
Rp1681
sg25
g18
(g19
S'QString'
p1682
(VAnsvarig enhet
p1683
tp1684
tp1685
Rp1686
sg31
g18
(g19
S'QString'
p1687
(Vtbd
p1688
tp1689
tp1690
Rp1691
sba(imetainfo
Item
p1692
(dp1693
g17
g18
(g19
S'QString'
p1694
(Vtbd
p1695
tp1696
tp1697
Rp1698
sg25
g18
(g19
S'QString'
p1699
(VHistorik
p1700
tp1701
tp1702
Rp1703
sg31
g18
(g19
S'QString'
p1704
(Vtbd
p1705
tp1706
tp1707
Rp1708
sba(imetainfo
Item
p1709
(dp1710
g17
g18
(g19
S'QString'
p1711
(Vtbd
p1712
tp1713
tp1714
Rp1715
sg25
g18
(g19
S'QString'
p1716
(VVerksamhetsagare
p1717
tp1718
tp1719
Rp1720
sg31
g18
(g19
S'QString'
p1721
(Vtbd
p1722
tp1723
tp1724
Rp1725
sba(imetainfo
Item
p1726
(dp1727
g17
g18
(g19
S'QString'
p1728
(Vtbd
p1729
tp1730
tp1731
Rp1732
sg25
g18
(g19
S'QString'
p1733
(VModell
p1734
tp1735
tp1736
Rp1737
sg31
g18
(g19
S'QString'
p1738
(Vxyz.jpg
p1739
tp1740
tp1741
Rp1742
sbasg25
S'Underprocess(201)'
p1743
sg123
S'b4d02aca-4d88-44cc-89bf-8940ffd7bfc1'
p1744
sbasg13
(lp1745
(imetainfo
Item
p1746
(dp1747
g17
g18
(g19
S'QString'
p1748
(Vtbd
p1749
tp1750
tp1751
Rp1752
sg25
g18
(g19
S'QString'
p1753
(VMal och Uppdrag
p1754
tp1755
tp1756
Rp1757
sg31
g18
(g19
S'QString'
p1758
(Vtbd
p1759
tp1760
tp1761
Rp1762
sba(imetainfo
Item
p1763
(dp1764
g17
g18
(g19
S'QString'
p1765
(Vtbd
p1766
tp1767
tp1768
Rp1769
sg25
g18
(g19
S'QString'
p1770
(VJuridisk person
p1771
tp1772
tp1773
Rp1774
sg31
g18
(g19
S'QString'
p1775
(Vtbd
p1776
tp1777
tp1778
Rp1779
sba(imetainfo
Item
p1780
(dp1781
g17
g18
(g19
S'QString'
p1782
(Vtbd
p1783
tp1784
tp1785
Rp1786
sg25
g18
(g19
S'QString'
p1787
(VAnsvarig enhet
p1788
tp1789
tp1790
Rp1791
sg31
g18
(g19
S'QString'
p1792
(Vtbd
p1793
tp1794
tp1795
Rp1796
sba(imetainfo
Item
p1797
(dp1798
g17
g18
(g19
S'QString'
p1799
(Vtbd
p1800
tp1801
tp1802
Rp1803
sg25
g18
(g19
S'QString'
p1804
(VHistorik
p1805
tp1806
tp1807
Rp1808
sg31
g18
(g19
S'QString'
p1809
(Vtbd
p1810
tp1811
tp1812
Rp1813
sba(imetainfo
Item
p1814
(dp1815
g17
g18
(g19
S'QString'
p1816
(Vtbd
p1817
tp1818
tp1819
Rp1820
sg25
g18
(g19
S'QString'
p1821
(VVerksamhetsagare
p1822
tp1823
tp1824
Rp1825
sg31
g18
(g19
S'QString'
p1826
(Vtbd
p1827
tp1828
tp1829
Rp1830
sba(imetainfo
Item
p1831
(dp1832
g17
g18
(g19
S'QString'
p1833
(Vtbd
p1834
tp1835
tp1836
Rp1837
sg25
g18
(g19
S'QString'
p1838
(VModell
p1839
tp1840
tp1841
Rp1842
sg31
g18
(g19
S'QString'
p1843
(VKatalogisering.jpg
p1844
tp1845
tp1846
Rp1847
sbasg25
S'Katalogisering'
p1848
sg123
S'5b03f506-76a8-4c86-9eb2-fa7e1e6724d4'
p1849
sba(imetainfo
Process
p1850
(dp1851
g2
(lp1852
(imetainfo
Process
p1853
(dp1854
g2
(lp1855
sg13
(lp1856
(imetainfo
Item
p1857
(dp1858
g17
g18
(g19
S'QString'
p1859
(Vtbd
p1860
tp1861
tp1862
Rp1863
sg25
g18
(g19
S'QString'
p1864
(VMal och Uppdrag
p1865
tp1866
tp1867
Rp1868
sg31
g18
(g19
S'QString'
p1869
(Vtbd
p1870
tp1871
tp1872
Rp1873
sba(imetainfo
Item
p1874
(dp1875
g17
g18
(g19
S'QString'
p1876
(Vtbd
p1877
tp1878
tp1879
Rp1880
sg25
g18
(g19
S'QString'
p1881
(VJuridisk person
p1882
tp1883
tp1884
Rp1885
sg31
g18
(g19
S'QString'
p1886
(Vtbd
p1887
tp1888
tp1889
Rp1890
sba(imetainfo
Item
p1891
(dp1892
g17
g18
(g19
S'QString'
p1893
(Vtbd
p1894
tp1895
tp1896
Rp1897
sg25
g18
(g19
S'QString'
p1898
(VAnsvarig enhet
p1899
tp1900
tp1901
Rp1902
sg31
g18
(g19
S'QString'
p1903
(Vtbd
p1904
tp1905
tp1906
Rp1907
sba(imetainfo
Item
p1908
(dp1909
g17
g18
(g19
S'QString'
p1910
(Vtbd
p1911
tp1912
tp1913
Rp1914
sg25
g18
(g19
S'QString'
p1915
(VHistorik
p1916
tp1917
tp1918
Rp1919
sg31
g18
(g19
S'QString'
p1920
(Vtbd
p1921
tp1922
tp1923
Rp1924
sba(imetainfo
Item
p1925
(dp1926
g17
g18
(g19
S'QString'
p1927
(Vtbd
p1928
tp1929
tp1930
Rp1931
sg25
g18
(g19
S'QString'
p1932
(VVerksamhetsagare
p1933
tp1934
tp1935
Rp1936
sg31
g18
(g19
S'QString'
p1937
(Vtbd
p1938
tp1939
tp1940
Rp1941
sba(imetainfo
Item
p1942
(dp1943
g17
g18
(g19
S'QString'
p1944
(Vtbd
p1945
tp1946
tp1947
Rp1948
sg25
g18
(g19
S'QString'
p1949
(VModell
p1950
tp1951
tp1952
Rp1953
sg31
g18
(g19
S'QString'
p1954
(Vxyz.jpg
p1955
tp1956
tp1957
Rp1958
sbasg25
S'Underprocess(210)'
p1959
sg123
S'af0c4d6a-912d-4597-8653-b73fde2d0620'
p1960
sba(imetainfo
Process
p1961
(dp1962
g2
(lp1963
sg13
(lp1964
(imetainfo
Item
p1965
(dp1966
g17
g18
(g19
S'QString'
p1967
(Vtbd
p1968
tp1969
tp1970
Rp1971
sg25
g18
(g19
S'QString'
p1972
(VMal och Uppdrag
p1973
tp1974
tp1975
Rp1976
sg31
g18
(g19
S'QString'
p1977
(Vtbd
p1978
tp1979
tp1980
Rp1981
sba(imetainfo
Item
p1982
(dp1983
g17
g18
(g19
S'QString'
p1984
(Vtbd
p1985
tp1986
tp1987
Rp1988
sg25
g18
(g19
S'QString'
p1989
(VJuridisk person
p1990
tp1991
tp1992
Rp1993
sg31
g18
(g19
S'QString'
p1994
(Vtbd
p1995
tp1996
tp1997
Rp1998
sba(imetainfo
Item
p1999
(dp2000
g17
g18
(g19
S'QString'
p2001
(Vtbd
p2002
tp2003
tp2004
Rp2005
sg25
g18
(g19
S'QString'
p2006
(VAnsvarig enhet
p2007
tp2008
tp2009
Rp2010
sg31
g18
(g19
S'QString'
p2011
(Vtbd
p2012
tp2013
tp2014
Rp2015
sba(imetainfo
Item
p2016
(dp2017
g17
g18
(g19
S'QString'
p2018
(Vtbd
p2019
tp2020
tp2021
Rp2022
sg25
g18
(g19
S'QString'
p2023
(VHistorik
p2024
tp2025
tp2026
Rp2027
sg31
g18
(g19
S'QString'
p2028
(Vtbd
p2029
tp2030
tp2031
Rp2032
sba(imetainfo
Item
p2033
(dp2034
g17
g18
(g19
S'QString'
p2035
(Vtbd
p2036
tp2037
tp2038
Rp2039
sg25
g18
(g19
S'QString'
p2040
(VVerksamhetsagare
p2041
tp2042
tp2043
Rp2044
sg31
g18
(g19
S'QString'
p2045
(Vtbd
p2046
tp2047
tp2048
Rp2049
sba(imetainfo
Item
p2050
(dp2051
g17
g18
(g19
S'QString'
p2052
(Vtbd
p2053
tp2054
tp2055
Rp2056
sg25
g18
(g19
S'QString'
p2057
(VModell
p2058
tp2059
tp2060
Rp2061
sg31
g18
(g19
S'QString'
p2062
(Vxyz.jpg
p2063
tp2064
tp2065
Rp2066
sbasg25
S'Underprocess(211)'
p2067
sg123
S'3c06223b-a560-4d08-b770-574a856f7c6e'
p2068
sbasg13
(lp2069
(imetainfo
Item
p2070
(dp2071
g17
g18
(g19
S'QString'
p2072
(Vtbd
p2073
tp2074
tp2075
Rp2076
sg25
g18
(g19
S'QString'
p2077
(VMal och Uppdrag
p2078
tp2079
tp2080
Rp2081
sg31
g18
(g19
S'QString'
p2082
(Vtbd
p2083
tp2084
tp2085
Rp2086
sba(imetainfo
Item
p2087
(dp2088
g17
g18
(g19
S'QString'
p2089
(Vtbd
p2090
tp2091
tp2092
Rp2093
sg25
g18
(g19
S'QString'
p2094
(VJuridisk person
p2095
tp2096
tp2097
Rp2098
sg31
g18
(g19
S'QString'
p2099
(Vtbd
p2100
tp2101
tp2102
Rp2103
sba(imetainfo
Item
p2104
(dp2105
g17
g18
(g19
S'QString'
p2106
(Vtbd
p2107
tp2108
tp2109
Rp2110
sg25
g18
(g19
S'QString'
p2111
(VAnsvarig enhet
p2112
tp2113
tp2114
Rp2115
sg31
g18
(g19
S'QString'
p2116
(Vtbd
p2117
tp2118
tp2119
Rp2120
sba(imetainfo
Item
p2121
(dp2122
g17
g18
(g19
S'QString'
p2123
(Vtbd
p2124
tp2125
tp2126
Rp2127
sg25
g18
(g19
S'QString'
p2128
(VHistorik
p2129
tp2130
tp2131
Rp2132
sg31
g18
(g19
S'QString'
p2133
(Vtbd
p2134
tp2135
tp2136
Rp2137
sba(imetainfo
Item
p2138
(dp2139
g17
g18
(g19
S'QString'
p2140
(Vtbd
p2141
tp2142
tp2143
Rp2144
sg25
g18
(g19
S'QString'
p2145
(VVerksamhetsagare
p2146
tp2147
tp2148
Rp2149
sg31
g18
(g19
S'QString'
p2150
(Vtbd
p2151
tp2152
tp2153
Rp2154
sba(imetainfo
Item
p2155
(dp2156
g17
g18
(g19
S'QString'
p2157
(Vtbd
p2158
tp2159
tp2160
Rp2161
sg25
g18
(g19
S'QString'
p2162
(VModell
p2163
tp2164
tp2165
Rp2166
sg31
g18
(g19
S'QString'
p2167
(VUtlan.jpg
p2168
tp2169
tp2170
Rp2171
sbasg25
S'Utl\xc3\xa5n'
p2172
sg123
S'e681a2cd-cf7a-4778-bdb4-38551aad0f9f'
p2173
sba(imetainfo
Process
p2174
(dp2175
g2
(lp2176
sg13
(lp2177
(imetainfo
Item
p2178
(dp2179
g17
g18
(g19
S'QString'
p2180
(Vtbd
p2181
tp2182
tp2183
Rp2184
sg25
g18
(g19
S'QString'
p2185
(VMal och Uppdrag
p2186
tp2187
tp2188
Rp2189
sg31
g18
(g19
S'QString'
p2190
(VJajaja
p2191
tp2192
tp2193
Rp2194
sba(imetainfo
Item
p2195
(dp2196
g17
g18
(g19
S'QString'
p2197
(Vtbd
p2198
tp2199
tp2200
Rp2201
sg25
g18
(g19
S'QString'
p2202
(VJuridisk person
p2203
tp2204
tp2205
Rp2206
sg31
g18
(g19
S'QString'
p2207
(Vtbd
p2208
tp2209
tp2210
Rp2211
sba(imetainfo
Item
p2212
(dp2213
g17
g18
(g19
S'QString'
p2214
(Vtbd
p2215
tp2216
tp2217
Rp2218
sg25
g18
(g19
S'QString'
p2219
(VAnsvarig enhet
p2220
tp2221
tp2222
Rp2223
sg31
g18
(g19
S'QString'
p2224
(Vtbd
p2225
tp2226
tp2227
Rp2228
sba(imetainfo
Item
p2229
(dp2230
g17
g18
(g19
S'QString'
p2231
(Vtbd
p2232
tp2233
tp2234
Rp2235
sg25
g18
(g19
S'QString'
p2236
(VHistorik
p2237
tp2238
tp2239
Rp2240
sg31
g18
(g19
S'QString'
p2241
(Vtbd
p2242
tp2243
tp2244
Rp2245
sba(imetainfo
Item
p2246
(dp2247
g17
g18
(g19
S'QString'
p2248
(Vtbd
p2249
tp2250
tp2251
Rp2252
sg25
g18
(g19
S'QString'
p2253
(VVerksamhetsagare
p2254
tp2255
tp2256
Rp2257
sg31
g18
(g19
S'QString'
p2258
(Vtbd
p2259
tp2260
tp2261
Rp2262
sba(imetainfo
Item
p2263
(dp2264
g17
g18
(g19
S'QString'
p2265
(Vtbd
p2266
tp2267
tp2268
Rp2269
sg25
g18
(g19
S'QString'
p2270
(VModell
p2271
tp2272
tp2273
Rp2274
sg31
g18
(g19
S'QString'
p2275
(VGallring.jpg
p2276
tp2277
tp2278
Rp2279
sbasg25
S'Gallring'
p2280
sg123
S'7f744842-3114-42bd-994d-8445186263c8'
p2281
sbasg13
(lp2282
(imetainfo
Item
p2283
(dp2284
g17
g18
(g19
S'QString'
p2285
(Vtbd
p2286
tp2287
tp2288
Rp2289
sg25
g18
(g19
S'QString'
p2290
(VTyp av strukturenhet
p2291
tp2292
tp2293
Rp2294
sg31
g18
(g19
S'QString'
p2295
(Vtbd
p2296
tp2297
tp2298
Rp2299
sba(imetainfo
Item
p2300
(dp2301
g17
g18
(g19
S'QString'
p2302
(Vtbd
p2303
tp2304
tp2305
Rp2306
sg25
g18
(g19
S'QString'
p2307
(VKlassificering
p2308
tp2309
tp2310
Rp2311
sg31
g18
(g19
S'QString'
p2312
(Vtbd
p2313
tp2314
tp2315
Rp2316
sba(imetainfo
Item
p2317
(dp2318
g17
g18
(g19
S'QString'
p2319
(Vtbd
p2320
tp2321
tp2322
Rp2323
sg25
g18
(g19
S'QString'
p2324
(VNamn
p2325
tp2326
tp2327
Rp2328
sg31
g18
(g19
S'QString'
p2329
(Vtbd
p2330
tp2331
tp2332
Rp2333
sba(imetainfo
Item
p2334
(dp2335
g17
g18
(g19
S'QString'
p2336
(Vtbd
p2337
tp2338
tp2339
Rp2340
sg25
g18
(g19
S'QString'
p2341
(VTid
p2342
tp2343
tp2344
Rp2345
sg31
g18
(g19
S'QString'
p2346
(Vtbd
p2347
tp2348
tp2349
Rp2350
sba(imetainfo
Item
p2351
(dp2352
g17
g18
(g19
S'QString'
p2353
(Vtbd
p2354
tp2355
tp2356
Rp2357
sg25
g18
(g19
S'QString'
p2358
(VForegicks av
p2359
tp2360
tp2361
Rp2362
sg31
g18
(g19
S'QString'
p2363
(Vtbd
p2364
tp2365
tp2366
Rp2367
sba(imetainfo
Item
p2368
(dp2369
g17
g18
(g19
S'QString'
p2370
(Vtbd
p2371
tp2372
tp2373
Rp2374
sg25
g18
(g19
S'QString'
p2375
(VModell
p2376
tp2377
tp2378
Rp2379
sg31
g18
(g19
S'QString'
p2380
(VLitteraturformedling.jpg
p2381
tp2382
tp2383
Rp2384
sbasg25
S'Litteraturformedling(2)'
p2385
sg123
S'32315dd0-b54b-4d73-b4cb-1100c3b34734'
p2386
sba(imetainfo
Process
p2387
(dp2388
g2
(lp2389
(imetainfo
Process
p2390
(dp2391
g2
(lp2392
(imetainfo
Process
p2393
(dp2394
g2
(lp2395
sg13
(lp2396
(imetainfo
Item
p2397
(dp2398
g17
g18
(g19
S'QString'
p2399
(Vtbd
p2400
tp2401
tp2402
Rp2403
sg25
g18
(g19
S'QString'
p2404
(VMal och Uppdrag
p2405
tp2406
tp2407
Rp2408
sg31
g18
(g19
S'QString'
p2409
(Vtbd
p2410
tp2411
tp2412
Rp2413
sba(imetainfo
Item
p2414
(dp2415
g17
g18
(g19
S'QString'
p2416
(Vtbd
p2417
tp2418
tp2419
Rp2420
sg25
g18
(g19
S'QString'
p2421
(VJuridisk person
p2422
tp2423
tp2424
Rp2425
sg31
g18
(g19
S'QString'
p2426
(Vtbd
p2427
tp2428
tp2429
Rp2430
sba(imetainfo
Item
p2431
(dp2432
g17
g18
(g19
S'QString'
p2433
(Vtbd
p2434
tp2435
tp2436
Rp2437
sg25
g18
(g19
S'QString'
p2438
(VAnsvarig enhet
p2439
tp2440
tp2441
Rp2442
sg31
g18
(g19
S'QString'
p2443
(Vtbd
p2444
tp2445
tp2446
Rp2447
sba(imetainfo
Item
p2448
(dp2449
g17
g18
(g19
S'QString'
p2450
(Vtbd
p2451
tp2452
tp2453
Rp2454
sg25
g18
(g19
S'QString'
p2455
(VHistorik
p2456
tp2457
tp2458
Rp2459
sg31
g18
(g19
S'QString'
p2460
(Vtbd
p2461
tp2462
tp2463
Rp2464
sba(imetainfo
Item
p2465
(dp2466
g17
g18
(g19
S'QString'
p2467
(Vtbd
p2468
tp2469
tp2470
Rp2471
sg25
g18
(g19
S'QString'
p2472
(VVerksamhetsagare
p2473
tp2474
tp2475
Rp2476
sg31
g18
(g19
S'QString'
p2477
(Vtbd
p2478
tp2479
tp2480
Rp2481
sba(imetainfo
Item
p2482
(dp2483
g17
g18
(g19
S'QString'
p2484
(Vtbd
p2485
tp2486
tp2487
Rp2488
sg25
g18
(g19
S'QString'
p2489
(VModell
p2490
tp2491
tp2492
Rp2493
sg31
g18
(g19
S'QString'
p2494
(Vxyz.jpg
p2495
tp2496
tp2497
Rp2498
sbasg25
S'Underprocess(300)'
p2499
sg123
S'81e7ff8a-0ab6-4a88-be93-f1cff07db823'
p2500
sba(imetainfo
Process
p2501
(dp2502
g2
(lp2503
sg13
(lp2504
(imetainfo
Item
p2505
(dp2506
g17
g18
(g19
S'QString'
p2507
(Vtbd
p2508
tp2509
tp2510
Rp2511
sg25
g18
(g19
S'QString'
p2512
(VMal och Uppdrag
p2513
tp2514
tp2515
Rp2516
sg31
g18
(g19
S'QString'
p2517
(Vtbd
p2518
tp2519
tp2520
Rp2521
sba(imetainfo
Item
p2522
(dp2523
g17
g18
(g19
S'QString'
p2524
(Vtbd
p2525
tp2526
tp2527
Rp2528
sg25
g18
(g19
S'QString'
p2529
(VJuridisk person
p2530
tp2531
tp2532
Rp2533
sg31
g18
(g19
S'QString'
p2534
(Vtbd
p2535
tp2536
tp2537
Rp2538
sba(imetainfo
Item
p2539
(dp2540
g17
g18
(g19
S'QString'
p2541
(Vtbd
p2542
tp2543
tp2544
Rp2545
sg25
g18
(g19
S'QString'
p2546
(VAnsvarig enhet
p2547
tp2548
tp2549
Rp2550
sg31
g18
(g19
S'QString'
p2551
(Vtbd
p2552
tp2553
tp2554
Rp2555
sba(imetainfo
Item
p2556
(dp2557
g17
g18
(g19
S'QString'
p2558
(Vtbd
p2559
tp2560
tp2561
Rp2562
sg25
g18
(g19
S'QString'
p2563
(VHistorik
p2564
tp2565
tp2566
Rp2567
sg31
g18
(g19
S'QString'
p2568
(Vtbd
p2569
tp2570
tp2571
Rp2572
sba(imetainfo
Item
p2573
(dp2574
g17
g18
(g19
S'QString'
p2575
(Vtbd
p2576
tp2577
tp2578
Rp2579
sg25
g18
(g19
S'QString'
p2580
(VVerksamhetsagare
p2581
tp2582
tp2583
Rp2584
sg31
g18
(g19
S'QString'
p2585
(Vtbd
p2586
tp2587
tp2588
Rp2589
sba(imetainfo
Item
p2590
(dp2591
g17
g18
(g19
S'QString'
p2592
(Vtbd
p2593
tp2594
tp2595
Rp2596
sg25
g18
(g19
S'QString'
p2597
(VModell
p2598
tp2599
tp2600
Rp2601
sg31
g18
(g19
S'QString'
p2602
(Vxyz.jpg
p2603
tp2604
tp2605
Rp2606
sbasg25
S'Underprocess(301)'
p2607
sg123
S'c93fb3ef-3be1-4688-95bd-f9039643c0c4'
p2608
sbasg13
(lp2609
(imetainfo
Item
p2610
(dp2611
g17
g18
(g19
S'QString'
p2612
(Vtbd
p2613
tp2614
tp2615
Rp2616
sg25
g18
(g19
S'QString'
p2617
(VMal och Uppdrag
p2618
tp2619
tp2620
Rp2621
sg31
g18
(g19
S'QString'
p2622
(Vtbd
p2623
tp2624
tp2625
Rp2626
sba(imetainfo
Item
p2627
(dp2628
g17
g18
(g19
S'QString'
p2629
(Vtbd
p2630
tp2631
tp2632
Rp2633
sg25
g18
(g19
S'QString'
p2634
(VJuridisk person
p2635
tp2636
tp2637
Rp2638
sg31
g18
(g19
S'QString'
p2639
(Vtbd
p2640
tp2641
tp2642
Rp2643
sba(imetainfo
Item
p2644
(dp2645
g17
g18
(g19
S'QString'
p2646
(Vtbd
p2647
tp2648
tp2649
Rp2650
sg25
g18
(g19
S'QString'
p2651
(VAnsvarig enhet
p2652
tp2653
tp2654
Rp2655
sg31
g18
(g19
S'QString'
p2656
(Vtbd
p2657
tp2658
tp2659
Rp2660
sba(imetainfo
Item
p2661
(dp2662
g17
g18
(g19
S'QString'
p2663
(Vtbd
p2664
tp2665
tp2666
Rp2667
sg25
g18
(g19
S'QString'
p2668
(VHistorik
p2669
tp2670
tp2671
Rp2672
sg31
g18
(g19
S'QString'
p2673
(Vtbd
p2674
tp2675
tp2676
Rp2677
sba(imetainfo
Item
p2678
(dp2679
g17
g18
(g19
S'QString'
p2680
(Vtbd
p2681
tp2682
tp2683
Rp2684
sg25
g18
(g19
S'QString'
p2685
(VVerksamhetsagare
p2686
tp2687
tp2688
Rp2689
sg31
g18
(g19
S'QString'
p2690
(Vtbd
p2691
tp2692
tp2693
Rp2694
sba(imetainfo
Item
p2695
(dp2696
g17
g18
(g19
S'QString'
p2697
(Vtbd
p2698
tp2699
tp2700
Rp2701
sg25
g18
(g19
S'QString'
p2702
(VModell
p2703
tp2704
tp2705
Rp2706
sg31
g18
(g19
S'QString'
p2707
(Vxyz.jpg
p2708
tp2709
tp2710
Rp2711
sbasg25
S'Underprocess(30)'
p2712
sg123
S'82e3d70c-d042-4c08-a3d0-6e5cee0b5a2d'
p2713
sba(imetainfo
Process
p2714
(dp2715
g2
(lp2716
(imetainfo
Process
p2717
(dp2718
g2
(lp2719
sg13
(lp2720
(imetainfo
Item
p2721
(dp2722
g17
g18
(g19
S'QString'
p2723
(Vtbd
p2724
tp2725
tp2726
Rp2727
sg25
g18
(g19
S'QString'
p2728
(VMal och Uppdrag
p2729
tp2730
tp2731
Rp2732
sg31
g18
(g19
S'QString'
p2733
(Vtbd
p2734
tp2735
tp2736
Rp2737
sba(imetainfo
Item
p2738
(dp2739
g17
g18
(g19
S'QString'
p2740
(Vtbd
p2741
tp2742
tp2743
Rp2744
sg25
g18
(g19
S'QString'
p2745
(VJuridisk person
p2746
tp2747
tp2748
Rp2749
sg31
g18
(g19
S'QString'
p2750
(Vtbd
p2751
tp2752
tp2753
Rp2754
sba(imetainfo
Item
p2755
(dp2756
g17
g18
(g19
S'QString'
p2757
(Vtbd
p2758
tp2759
tp2760
Rp2761
sg25
g18
(g19
S'QString'
p2762
(VAnsvarig enhet
p2763
tp2764
tp2765
Rp2766
sg31
g18
(g19
S'QString'
p2767
(Vtbd
p2768
tp2769
tp2770
Rp2771
sba(imetainfo
Item
p2772
(dp2773
g17
g18
(g19
S'QString'
p2774
(Vtbd
p2775
tp2776
tp2777
Rp2778
sg25
g18
(g19
S'QString'
p2779
(VHistorik
p2780
tp2781
tp2782
Rp2783
sg31
g18
(g19
S'QString'
p2784
(Vtbd
p2785
tp2786
tp2787
Rp2788
sba(imetainfo
Item
p2789
(dp2790
g17
g18
(g19
S'QString'
p2791
(Vtbd
p2792
tp2793
tp2794
Rp2795
sg25
g18
(g19
S'QString'
p2796
(VVerksamhetsagare
p2797
tp2798
tp2799
Rp2800
sg31
g18
(g19
S'QString'
p2801
(Vtbd
p2802
tp2803
tp2804
Rp2805
sba(imetainfo
Item
p2806
(dp2807
g17
g18
(g19
S'QString'
p2808
(Vtbd
p2809
tp2810
tp2811
Rp2812
sg25
g18
(g19
S'QString'
p2813
(VModell
p2814
tp2815
tp2816
Rp2817
sg31
g18
(g19
S'QString'
p2818
(Vxyz.jpg
p2819
tp2820
tp2821
Rp2822
sbasg25
S'Underprocess(310)'
p2823
sg123
S'20e38f73-7215-419b-a024-5f56094b3cc9'
p2824
sba(imetainfo
Process
p2825
(dp2826
g2
(lp2827
sg13
(lp2828
(imetainfo
Item
p2829
(dp2830
g17
g18
(g19
S'QString'
p2831
(Vtbd
p2832
tp2833
tp2834
Rp2835
sg25
g18
(g19
S'QString'
p2836
(VMal och Uppdrag
p2837
tp2838
tp2839
Rp2840
sg31
g18
(g19
S'QString'
p2841
(Vtbd
p2842
tp2843
tp2844
Rp2845
sba(imetainfo
Item
p2846
(dp2847
g17
g18
(g19
S'QString'
p2848
(Vtbd
p2849
tp2850
tp2851
Rp2852
sg25
g18
(g19
S'QString'
p2853
(VJuridisk person
p2854
tp2855
tp2856
Rp2857
sg31
g18
(g19
S'QString'
p2858
(Vtbd
p2859
tp2860
tp2861
Rp2862
sba(imetainfo
Item
p2863
(dp2864
g17
g18
(g19
S'QString'
p2865
(Vtbd
p2866
tp2867
tp2868
Rp2869
sg25
g18
(g19
S'QString'
p2870
(VAnsvarig enhet
p2871
tp2872
tp2873
Rp2874
sg31
g18
(g19
S'QString'
p2875
(Vtbd
p2876
tp2877
tp2878
Rp2879
sba(imetainfo
Item
p2880
(dp2881
g17
g18
(g19
S'QString'
p2882
(Vtbd
p2883
tp2884
tp2885
Rp2886
sg25
g18
(g19
S'QString'
p2887
(VHistorik
p2888
tp2889
tp2890
Rp2891
sg31
g18
(g19
S'QString'
p2892
(Vtbd
p2893
tp2894
tp2895
Rp2896
sba(imetainfo
Item
p2897
(dp2898
g17
g18
(g19
S'QString'
p2899
(Vtbd
p2900
tp2901
tp2902
Rp2903
sg25
g18
(g19
S'QString'
p2904
(VVerksamhetsagare
p2905
tp2906
tp2907
Rp2908
sg31
g18
(g19
S'QString'
p2909
(Vtbd
p2910
tp2911
tp2912
Rp2913
sba(imetainfo
Item
p2914
(dp2915
g17
g18
(g19
S'QString'
p2916
(Vtbd
p2917
tp2918
tp2919
Rp2920
sg25
g18
(g19
S'QString'
p2921
(VModell
p2922
tp2923
tp2924
Rp2925
sg31
g18
(g19
S'QString'
p2926
(Vxyz.jpg
p2927
tp2928
tp2929
Rp2930
sbasg25
S'Underprocess(311)'
p2931
sg123
S'68b2bc1d-1f22-4490-9ef5-dab823085f8c'
p2932
sbasg13
(lp2933
(imetainfo
Item
p2934
(dp2935
g17
g18
(g19
S'QString'
p2936
(Vtbd
p2937
tp2938
tp2939
Rp2940
sg25
g18
(g19
S'QString'
p2941
(VMal och Uppdrag
p2942
tp2943
tp2944
Rp2945
sg31
g18
(g19
S'QString'
p2946
(Vtbd
p2947
tp2948
tp2949
Rp2950
sba(imetainfo
Item
p2951
(dp2952
g17
g18
(g19
S'QString'
p2953
(Vtbd
p2954
tp2955
tp2956
Rp2957
sg25
g18
(g19
S'QString'
p2958
(VJuridisk person
p2959
tp2960
tp2961
Rp2962
sg31
g18
(g19
S'QString'
p2963
(Vtbd
p2964
tp2965
tp2966
Rp2967
sba(imetainfo
Item
p2968
(dp2969
g17
g18
(g19
S'QString'
p2970
(Vtbd
p2971
tp2972
tp2973
Rp2974
sg25
g18
(g19
S'QString'
p2975
(VAnsvarig enhet
p2976
tp2977
tp2978
Rp2979
sg31
g18
(g19
S'QString'
p2980
(Vtbd
p2981
tp2982
tp2983
Rp2984
sba(imetainfo
Item
p2985
(dp2986
g17
g18
(g19
S'QString'
p2987
(Vtbd
p2988
tp2989
tp2990
Rp2991
sg25
g18
(g19
S'QString'
p2992
(VHistorik
p2993
tp2994
tp2995
Rp2996
sg31
g18
(g19
S'QString'
p2997
(Vtbd
p2998
tp2999
tp3000
Rp3001
sba(imetainfo
Item
p3002
(dp3003
g17
g18
(g19
S'QString'
p3004
(Vtbd
p3005
tp3006
tp3007
Rp3008
sg25
g18
(g19
S'QString'
p3009
(VVerksamhetsagare
p3010
tp3011
tp3012
Rp3013
sg31
g18
(g19
S'QString'
p3014
(Vtbd
p3015
tp3016
tp3017
Rp3018
sba(imetainfo
Item
p3019
(dp3020
g17
g18
(g19
S'QString'
p3021
(Vtbd
p3022
tp3023
tp3024
Rp3025
sg25
g18
(g19
S'QString'
p3026
(VModell
p3027
tp3028
tp3029
Rp3030
sg31
g18
(g19
S'QString'
p3031
(Vxyz.jpg
p3032
tp3033
tp3034
Rp3035
sbasg25
S'Underprocess(31)'
p3036
sg123
S'abe89914-5af1-414e-9ee9-d7e598b5856b'
p3037
sbasg13
(lp3038
(imetainfo
Item
p3039
(dp3040
g17
g18
(g19
S'QString'
p3041
(Vtbd
p3042
tp3043
tp3044
Rp3045
sg25
g18
(g19
S'QString'
p3046
(VTyp av strukturenhet
p3047
tp3048
tp3049
Rp3050
sg31
g18
(g19
S'QString'
p3051
(Vtbd
p3052
tp3053
tp3054
Rp3055
sba(imetainfo
Item
p3056
(dp3057
g17
g18
(g19
S'QString'
p3058
(Vtbd
p3059
tp3060
tp3061
Rp3062
sg25
g18
(g19
S'QString'
p3063
(VKlassificering
p3064
tp3065
tp3066
Rp3067
sg31
g18
(g19
S'QString'
p3068
(Vtbd
p3069
tp3070
tp3071
Rp3072
sba(imetainfo
Item
p3073
(dp3074
g17
g18
(g19
S'QString'
p3075
(Vtbd
p3076
tp3077
tp3078
Rp3079
sg25
g18
(g19
S'QString'
p3080
(VNamn
p3081
tp3082
tp3083
Rp3084
sg31
g18
(g19
S'QString'
p3085
(Vtbd
p3086
tp3087
tp3088
Rp3089
sba(imetainfo
Item
p3090
(dp3091
g17
g18
(g19
S'QString'
p3092
(Vtbd
p3093
tp3094
tp3095
Rp3096
sg25
g18
(g19
S'QString'
p3097
(VTid
p3098
tp3099
tp3100
Rp3101
sg31
g18
(g19
S'QString'
p3102
(Vtbd
p3103
tp3104
tp3105
Rp3106
sba(imetainfo
Item
p3107
(dp3108
g17
g18
(g19
S'QString'
p3109
(Vtbd
p3110
tp3111
tp3112
Rp3113
sg25
g18
(g19
S'QString'
p3114
(VForegicks av
p3115
tp3116
tp3117
Rp3118
sg31
g18
(g19
S'QString'
p3119
(Vtbd
p3120
tp3121
tp3122
Rp3123
sba(imetainfo
Item
p3124
(dp3125
g17
g18
(g19
S'QString'
p3126
(Vtbd
p3127
tp3128
tp3129
Rp3130
sg25
g18
(g19
S'QString'
p3131
(VModell
p3132
tp3133
tp3134
Rp3135
sg31
g18
(g19
S'QString'
p3136
(Vxyz.jpg
p3137
tp3138
tp3139
Rp3140
sbasg25
S'Uppsokande verksamhet(3)'
p3141
sg123
S'dbdd8ebf-bd34-453b-a159-e6b8f2b48a64'
p3142
sba(imetainfo
Process
p3143
(dp3144
g2
(lp3145
(imetainfo
Process
p3146
(dp3147
g2
(lp3148
(imetainfo
Process
p3149
(dp3150
g2
(lp3151
sg13
(lp3152
(imetainfo
Item
p3153
(dp3154
g17
g18
(g19
S'QString'
p3155
(Vtbd
p3156
tp3157
tp3158
Rp3159
sg25
g18
(g19
S'QString'
p3160
(VMal och Uppdrag
p3161
tp3162
tp3163
Rp3164
sg31
g18
(g19
S'QString'
p3165
(Vtbd
p3166
tp3167
tp3168
Rp3169
sba(imetainfo
Item
p3170
(dp3171
g17
g18
(g19
S'QString'
p3172
(Vtbd
p3173
tp3174
tp3175
Rp3176
sg25
g18
(g19
S'QString'
p3177
(VJuridisk person
p3178
tp3179
tp3180
Rp3181
sg31
g18
(g19
S'QString'
p3182
(Vtbd
p3183
tp3184
tp3185
Rp3186
sba(imetainfo
Item
p3187
(dp3188
g17
g18
(g19
S'QString'
p3189
(Vtbd
p3190
tp3191
tp3192
Rp3193
sg25
g18
(g19
S'QString'
p3194
(VAnsvarig enhet
p3195
tp3196
tp3197
Rp3198
sg31
g18
(g19
S'QString'
p3199
(Vtbd
p3200
tp3201
tp3202
Rp3203
sba(imetainfo
Item
p3204
(dp3205
g17
g18
(g19
S'QString'
p3206
(Vtbd
p3207
tp3208
tp3209
Rp3210
sg25
g18
(g19
S'QString'
p3211
(VHistorik
p3212
tp3213
tp3214
Rp3215
sg31
g18
(g19
S'QString'
p3216
(Vtbd
p3217
tp3218
tp3219
Rp3220
sba(imetainfo
Item
p3221
(dp3222
g17
g18
(g19
S'QString'
p3223
(Vtbd
p3224
tp3225
tp3226
Rp3227
sg25
g18
(g19
S'QString'
p3228
(VVerksamhetsagare
p3229
tp3230
tp3231
Rp3232
sg31
g18
(g19
S'QString'
p3233
(Vtbd
p3234
tp3235
tp3236
Rp3237
sba(imetainfo
Item
p3238
(dp3239
g17
g18
(g19
S'QString'
p3240
(Vtbd
p3241
tp3242
tp3243
Rp3244
sg25
g18
(g19
S'QString'
p3245
(VModell
p3246
tp3247
tp3248
Rp3249
sg31
g18
(g19
S'QString'
p3250
(Vxyz.jpg
p3251
tp3252
tp3253
Rp3254
sbasg25
S'Underprocess(400)'
p3255
sg123
S'94c1a126-16de-4ec4-b731-3aa7c186ec9c'
p3256
sba(imetainfo
Process
p3257
(dp3258
g2
(lp3259
sg13
(lp3260
(imetainfo
Item
p3261
(dp3262
g17
g18
(g19
S'QString'
p3263
(Vtbd
p3264
tp3265
tp3266
Rp3267
sg25
g18
(g19
S'QString'
p3268
(VMal och Uppdrag
p3269
tp3270
tp3271
Rp3272
sg31
g18
(g19
S'QString'
p3273
(Vtbd
p3274
tp3275
tp3276
Rp3277
sba(imetainfo
Item
p3278
(dp3279
g17
g18
(g19
S'QString'
p3280
(Vtbd
p3281
tp3282
tp3283
Rp3284
sg25
g18
(g19
S'QString'
p3285
(VJuridisk person
p3286
tp3287
tp3288
Rp3289
sg31
g18
(g19
S'QString'
p3290
(Vtbd
p3291
tp3292
tp3293
Rp3294
sba(imetainfo
Item
p3295
(dp3296
g17
g18
(g19
S'QString'
p3297
(Vtbd
p3298
tp3299
tp3300
Rp3301
sg25
g18
(g19
S'QString'
p3302
(VAnsvarig enhet
p3303
tp3304
tp3305
Rp3306
sg31
g18
(g19
S'QString'
p3307
(Vtbd
p3308
tp3309
tp3310
Rp3311
sba(imetainfo
Item
p3312
(dp3313
g17
g18
(g19
S'QString'
p3314
(Vtbd
p3315
tp3316
tp3317
Rp3318
sg25
g18
(g19
S'QString'
p3319
(VHistorik
p3320
tp3321
tp3322
Rp3323
sg31
g18
(g19
S'QString'
p3324
(Vtbd
p3325
tp3326
tp3327
Rp3328
sba(imetainfo
Item
p3329
(dp3330
g17
g18
(g19
S'QString'
p3331
(Vtbd
p3332
tp3333
tp3334
Rp3335
sg25
g18
(g19
S'QString'
p3336
(VVerksamhetsagare
p3337
tp3338
tp3339
Rp3340
sg31
g18
(g19
S'QString'
p3341
(Vtbd
p3342
tp3343
tp3344
Rp3345
sba(imetainfo
Item
p3346
(dp3347
g17
g18
(g19
S'QString'
p3348
(Vtbd
p3349
tp3350
tp3351
Rp3352
sg25
g18
(g19
S'QString'
p3353
(VModell
p3354
tp3355
tp3356
Rp3357
sg31
g18
(g19
S'QString'
p3358
(Vxyz.jpg
p3359
tp3360
tp3361
Rp3362
sbasg25
S'Underprocess(401)'
p3363
sg123
S'07ac79b9-42ed-4ad6-beca-71fe607ca8f5'
p3364
sbasg13
(lp3365
(imetainfo
Item
p3366
(dp3367
g17
g18
(g19
S'QString'
p3368
(Vtbd
p3369
tp3370
tp3371
Rp3372
sg25
g18
(g19
S'QString'
p3373
(VMal och Uppdrag
p3374
tp3375
tp3376
Rp3377
sg31
g18
(g19
S'QString'
p3378
(Vtbd
p3379
tp3380
tp3381
Rp3382
sba(imetainfo
Item
p3383
(dp3384
g17
g18
(g19
S'QString'
p3385
(Vtbd
p3386
tp3387
tp3388
Rp3389
sg25
g18
(g19
S'QString'
p3390
(VJuridisk person
p3391
tp3392
tp3393
Rp3394
sg31
g18
(g19
S'QString'
p3395
(Vtbd
p3396
tp3397
tp3398
Rp3399
sba(imetainfo
Item
p3400
(dp3401
g17
g18
(g19
S'QString'
p3402
(Vtbd
p3403
tp3404
tp3405
Rp3406
sg25
g18
(g19
S'QString'
p3407
(VAnsvarig enhet
p3408
tp3409
tp3410
Rp3411
sg31
g18
(g19
S'QString'
p3412
(Vtbd
p3413
tp3414
tp3415
Rp3416
sba(imetainfo
Item
p3417
(dp3418
g17
g18
(g19
S'QString'
p3419
(Vtbd
p3420
tp3421
tp3422
Rp3423
sg25
g18
(g19
S'QString'
p3424
(VHistorik
p3425
tp3426
tp3427
Rp3428
sg31
g18
(g19
S'QString'
p3429
(Vtbd
p3430
tp3431
tp3432
Rp3433
sba(imetainfo
Item
p3434
(dp3435
g17
g18
(g19
S'QString'
p3436
(Vtbd
p3437
tp3438
tp3439
Rp3440
sg25
g18
(g19
S'QString'
p3441
(VVerksamhetsagare
p3442
tp3443
tp3444
Rp3445
sg31
g18
(g19
S'QString'
p3446
(Vtbd
p3447
tp3448
tp3449
Rp3450
sba(imetainfo
Item
p3451
(dp3452
g17
g18
(g19
S'QString'
p3453
(Vtbd
p3454
tp3455
tp3456
Rp3457
sg25
g18
(g19
S'QString'
p3458
(VModell
p3459
tp3460
tp3461
Rp3462
sg31
g18
(g19
S'QString'
p3463
(Vxyz.jpg
p3464
tp3465
tp3466
Rp3467
sbasg25
S'Underprocess(40)'
p3468
sg123
S'f5e1cf6e-85a3-4acb-9e09-84b001379fbc'
p3469
sba(imetainfo
Process
p3470
(dp3471
g2
(lp3472
(imetainfo
Process
p3473
(dp3474
g2
(lp3475
sg13
(lp3476
(imetainfo
Item
p3477
(dp3478
g17
g18
(g19
S'QString'
p3479
(Vtbd
p3480
tp3481
tp3482
Rp3483
sg25
g18
(g19
S'QString'
p3484
(VMal och Uppdrag
p3485
tp3486
tp3487
Rp3488
sg31
g18
(g19
S'QString'
p3489
(Vtbd
p3490
tp3491
tp3492
Rp3493
sba(imetainfo
Item
p3494
(dp3495
g17
g18
(g19
S'QString'
p3496
(Vtbd
p3497
tp3498
tp3499
Rp3500
sg25
g18
(g19
S'QString'
p3501
(VJuridisk person
p3502
tp3503
tp3504
Rp3505
sg31
g18
(g19
S'QString'
p3506
(Vtbd
p3507
tp3508
tp3509
Rp3510
sba(imetainfo
Item
p3511
(dp3512
g17
g18
(g19
S'QString'
p3513
(Vtbd
p3514
tp3515
tp3516
Rp3517
sg25
g18
(g19
S'QString'
p3518
(VAnsvarig enhet
p3519
tp3520
tp3521
Rp3522
sg31
g18
(g19
S'QString'
p3523
(Vtbd
p3524
tp3525
tp3526
Rp3527
sba(imetainfo
Item
p3528
(dp3529
g17
g18
(g19
S'QString'
p3530
(Vtbd
p3531
tp3532
tp3533
Rp3534
sg25
g18
(g19
S'QString'
p3535
(VHistorik
p3536
tp3537
tp3538
Rp3539
sg31
g18
(g19
S'QString'
p3540
(Vtbd
p3541
tp3542
tp3543
Rp3544
sba(imetainfo
Item
p3545
(dp3546
g17
g18
(g19
S'QString'
p3547
(Vtbd
p3548
tp3549
tp3550
Rp3551
sg25
g18
(g19
S'QString'
p3552
(VVerksamhetsagare
p3553
tp3554
tp3555
Rp3556
sg31
g18
(g19
S'QString'
p3557
(Vtbd
p3558
tp3559
tp3560
Rp3561
sba(imetainfo
Item
p3562
(dp3563
g17
g18
(g19
S'QString'
p3564
(Vtbd
p3565
tp3566
tp3567
Rp3568
sg25
g18
(g19
S'QString'
p3569
(VModell
p3570
tp3571
tp3572
Rp3573
sg31
g18
(g19
S'QString'
p3574
(Vxyz.jpg
p3575
tp3576
tp3577
Rp3578
sbasg25
S'Underprocess(410)'
p3579
sg123
S'92eee554-916b-4679-92d6-24cb0f572c72'
p3580
sba(imetainfo
Process
p3581
(dp3582
g2
(lp3583
sg13
(lp3584
(imetainfo
Item
p3585
(dp3586
g17
g18
(g19
S'QString'
p3587
(Vtbd
p3588
tp3589
tp3590
Rp3591
sg25
g18
(g19
S'QString'
p3592
(VMal och Uppdrag
p3593
tp3594
tp3595
Rp3596
sg31
g18
(g19
S'QString'
p3597
(Vtbd
p3598
tp3599
tp3600
Rp3601
sba(imetainfo
Item
p3602
(dp3603
g17
g18
(g19
S'QString'
p3604
(Vtbd
p3605
tp3606
tp3607
Rp3608
sg25
g18
(g19
S'QString'
p3609
(VJuridisk person
p3610
tp3611
tp3612
Rp3613
sg31
g18
(g19
S'QString'
p3614
(Vtbd
p3615
tp3616
tp3617
Rp3618
sba(imetainfo
Item
p3619
(dp3620
g17
g18
(g19
S'QString'
p3621
(Vtbd
p3622
tp3623
tp3624
Rp3625
sg25
g18
(g19
S'QString'
p3626
(VAnsvarig enhet
p3627
tp3628
tp3629
Rp3630
sg31
g18
(g19
S'QString'
p3631
(Vtbd
p3632
tp3633
tp3634
Rp3635
sba(imetainfo
Item
p3636
(dp3637
g17
g18
(g19
S'QString'
p3638
(Vtbd
p3639
tp3640
tp3641
Rp3642
sg25
g18
(g19
S'QString'
p3643
(VHistorik
p3644
tp3645
tp3646
Rp3647
sg31
g18
(g19
S'QString'
p3648
(Vtbd
p3649
tp3650
tp3651
Rp3652
sba(imetainfo
Item
p3653
(dp3654
g17
g18
(g19
S'QString'
p3655
(Vtbd
p3656
tp3657
tp3658
Rp3659
sg25
g18
(g19
S'QString'
p3660
(VVerksamhetsagare
p3661
tp3662
tp3663
Rp3664
sg31
g18
(g19
S'QString'
p3665
(Vtbd
p3666
tp3667
tp3668
Rp3669
sba(imetainfo
Item
p3670
(dp3671
g17
g18
(g19
S'QString'
p3672
(Vtbd
p3673
tp3674
tp3675
Rp3676
sg25
g18
(g19
S'QString'
p3677
(VModell
p3678
tp3679
tp3680
Rp3681
sg31
g18
(g19
S'QString'
p3682
(Vxyz.jpg
p3683
tp3684
tp3685
Rp3686
sbasg25
S'Underprocess(411)'
p3687
sg123
S'e7b9ce36-92ae-46c3-b449-6c43e9322bdf'
p3688
sbasg13
(lp3689
(imetainfo
Item
p3690
(dp3691
g17
g18
(g19
S'QString'
p3692
(Vtbd
p3693
tp3694
tp3695
Rp3696
sg25
g18
(g19
S'QString'
p3697
(VMal och Uppdrag
p3698
tp3699
tp3700
Rp3701
sg31
g18
(g19
S'QString'
p3702
(Vtbd
p3703
tp3704
tp3705
Rp3706
sba(imetainfo
Item
p3707
(dp3708
g17
g18
(g19
S'QString'
p3709
(Vtbd
p3710
tp3711
tp3712
Rp3713
sg25
g18
(g19
S'QString'
p3714
(VJuridisk person
p3715
tp3716
tp3717
Rp3718
sg31
g18
(g19
S'QString'
p3719
(Vtbd
p3720
tp3721
tp3722
Rp3723
sba(imetainfo
Item
p3724
(dp3725
g17
g18
(g19
S'QString'
p3726
(Vtbd
p3727
tp3728
tp3729
Rp3730
sg25
g18
(g19
S'QString'
p3731
(VAnsvarig enhet
p3732
tp3733
tp3734
Rp3735
sg31
g18
(g19
S'QString'
p3736
(Vtbd
p3737
tp3738
tp3739
Rp3740
sba(imetainfo
Item
p3741
(dp3742
g17
g18
(g19
S'QString'
p3743
(Vtbd
p3744
tp3745
tp3746
Rp3747
sg25
g18
(g19
S'QString'
p3748
(VHistorik
p3749
tp3750
tp3751
Rp3752
sg31
g18
(g19
S'QString'
p3753
(Vtbd
p3754
tp3755
tp3756
Rp3757
sba(imetainfo
Item
p3758
(dp3759
g17
g18
(g19
S'QString'
p3760
(Vtbd
p3761
tp3762
tp3763
Rp3764
sg25
g18
(g19
S'QString'
p3765
(VVerksamhetsagare
p3766
tp3767
tp3768
Rp3769
sg31
g18
(g19
S'QString'
p3770
(Vtbd
p3771
tp3772
tp3773
Rp3774
sba(imetainfo
Item
p3775
(dp3776
g17
g18
(g19
S'QString'
p3777
(Vtbd
p3778
tp3779
tp3780
Rp3781
sg25
g18
(g19
S'QString'
p3782
(VModell
p3783
tp3784
tp3785
Rp3786
sg31
g18
(g19
S'QString'
p3787
(Vxyz.jpg
p3788
tp3789
tp3790
Rp3791
sbasg25
S'Underprocess(41)'
p3792
sg123
S'ce34135f-b916-4c4f-b170-216153d44e73'
p3793
sbasg13
(lp3794
(imetainfo
Item
p3795
(dp3796
g17
g18
(g19
S'QString'
p3797
(Vtbd
p3798
tp3799
tp3800
Rp3801
sg25
g18
(g19
S'QString'
p3802
(VTyp av strukturenhet
p3803
tp3804
tp3805
Rp3806
sg31
g18
(g19
S'QString'
p3807
(Vtbd
p3808
tp3809
tp3810
Rp3811
sba(imetainfo
Item
p3812
(dp3813
g17
g18
(g19
S'QString'
p3814
(Vtbd
p3815
tp3816
tp3817
Rp3818
sg25
g18
(g19
S'QString'
p3819
(VKlassificering
p3820
tp3821
tp3822
Rp3823
sg31
g18
(g19
S'QString'
p3824
(Vtbd
p3825
tp3826
tp3827
Rp3828
sba(imetainfo
Item
p3829
(dp3830
g17
g18
(g19
S'QString'
p3831
(Vtbd
p3832
tp3833
tp3834
Rp3835
sg25
g18
(g19
S'QString'
p3836
(VNamn
p3837
tp3838
tp3839
Rp3840
sg31
g18
(g19
S'QString'
p3841
(Vtbd
p3842
tp3843
tp3844
Rp3845
sba(imetainfo
Item
p3846
(dp3847
g17
g18
(g19
S'QString'
p3848
(Vtbd
p3849
tp3850
tp3851
Rp3852
sg25
g18
(g19
S'QString'
p3853
(VTid
p3854
tp3855
tp3856
Rp3857
sg31
g18
(g19
S'QString'
p3858
(Vtbd
p3859
tp3860
tp3861
Rp3862
sba(imetainfo
Item
p3863
(dp3864
g17
g18
(g19
S'QString'
p3865
(Vtbd
p3866
tp3867
tp3868
Rp3869
sg25
g18
(g19
S'QString'
p3870
(VForegicks av
p3871
tp3872
tp3873
Rp3874
sg31
g18
(g19
S'QString'
p3875
(Vtbd
p3876
tp3877
tp3878
Rp3879
sba(imetainfo
Item
p3880
(dp3881
g17
g18
(g19
S'QString'
p3882
(Vtbd
p3883
tp3884
tp3885
Rp3886
sg25
g18
(g19
S'QString'
p3887
(VModell
p3888
tp3889
tp3890
Rp3891
sg31
g18
(g19
S'QString'
p3892
(Vxyz.jpg
p3893
tp3894
tp3895
Rp3896
sbasg25
S'Barn & Ungdom(4)'
p3897
sg123
S'45efd3e8-5079-4afa-9bfe-085ceb20f496'
p3898
sbasg13
(lp3899
sg25
S'root'
p3900
sg123
S'a35faf0a-31ef-49b1-8dcf-c01f2bb8deb7'
p3901
sb.